; Function Attrs: mustprogress uwtable
define internal void @_ZN6duckdbL27GenericRoundFunctionDecimalIiNS_13NumericHelperENS_19CeilDecimalOperatorEEEvRNS_9DataChunkERNS_15ExpressionStateERNS_6VectorE(ptr noundef nonnull align 8 dereferenceable(64) %0, ptr noundef nonnull readonly align 8 captures(none) dereferenceable(176) %1, ptr noundef nonnull align 8 dereferenceable(104) %2) #0 {
  %4 = alloca %class.anon.228, align 8
  %5 = alloca i32, align 4
  %6 = getelementptr inbounds nuw i8, ptr %1, i64 8
  %7 = load ptr, ptr %6, align 8, !tbaa !128
  %8 = tail call noundef nonnull align 8 dereferenceable(417) ptr @_ZNK6duckdb14BaseExpression4CastINS_23BoundFunctionExpressionEEERKT_v(ptr noundef nonnull align 8 dereferenceable(56) %7)
  %9 = getelementptr inbounds nuw i8, ptr %8, i64 384
  %10 = tail call noundef nonnull align 8 dereferenceable(8) ptr @_ZNK6duckdb6vectorINS_10unique_ptrINS_10ExpressionESt14default_deleteIS2_ELb1EEELb1EEixEm(ptr noundef nonnull align 8 dereferenceable(24) %9, i64 noundef 0)
  %11 = tail call noundef ptr @_ZNK6duckdb10unique_ptrINS_10ExpressionESt14default_deleteIS1_ELb1EEptEv(ptr noundef nonnull align 8 dereferenceable(8) %10)
  %12 = getelementptr inbounds nuw i8, ptr %11, i64 56
  %13 = tail call noundef zeroext i8 @_ZN6duckdb11DecimalType8GetScaleERKNS_11LogicalTypeE(ptr noundef nonnull align 8 dereferenceable(24) %12)
  call void @llvm.lifetime.start.p0(i64 4, ptr nonnull %5) #23
  %14 = zext i8 %13 to i64
  %15 = getelementptr inbounds nuw [20 x i64], ptr @_ZN6duckdb13NumericHelper13POWERS_OF_TENE, i64 0, i64 %14
  %16 = load i64, ptr %15, align 8, !tbaa !145
  %17 = trunc i64 %16 to i32
  store i32 %17, ptr %5, align 4, !tbaa !37
  %18 = tail call noundef nonnull align 8 dereferenceable(104) ptr @_ZN6duckdb6vectorINS_6VectorELb1EEixEm(ptr noundef nonnull align 8 dereferenceable(64) %0, i64 noundef 0)
  %19 = getelementptr inbounds nuw i8, ptr %0, i64 24
  %20 = load i64, ptr %19, align 8, !tbaa !39
  call void @llvm.lifetime.start.p0(i64 8, ptr nonnull %4)
  store ptr %5, ptr %4, align 8
  call void @_ZN6duckdb13UnaryExecutor15ExecuteStandardIiiNS_18UnaryLambdaWrapperEZNS_19CeilDecimalOperator9OperationIiNS_13NumericHelperEEEvRNS_9DataChunkEhRNS_6VectorEEUliE_EEvS9_S9_mPvbNS_14FunctionErrorsE(ptr noundef nonnull align 8 dereferenceable(104) %18, ptr noundef nonnull align 8 dereferenceable(104) %2, i64 noundef %20, ptr noundef nonnull %4, i1 noundef zeroext false, i8 noundef zeroext 1)
  call void @llvm.lifetime.end.p0(i64 8, ptr nonnull %4)
  call void @llvm.lifetime.end.p0(i64 4, ptr nonnull %5) #23
  ret void
}